; Function Attrs: mustprogress nounwind uwtable
define hidden void @_ZN24ShenandoahEvacOOMHandler5clearEv(ptr nocapture noundef nonnull readonly align 8 dereferenceable(80) %0) local_unnamed_addr #1 align 2 {
  %2 = load i32, ptr %0, align 8
  %3 = icmp sgt i32 %2, 0
  br i1 %3, label %.lr.ph, label %._crit_edge

.lr.ph:                                           ; preds = %1
  %4 = getelementptr inbounds i8, ptr %0, i64 72
  br label %5

5:                                                ; preds = %.lr.ph, %5
  %indvars.iv = phi i64 [ 0, %.lr.ph ], [ %indvars.iv.next, %5 ]
  %6 = load ptr, ptr %4, align 8
  %7 = getelementptr inbounds %class.ShenandoahEvacOOMCounter, ptr %6, i64 %indvars.iv
  %8 = tail call i32 asm sideeffect "xchgl ($2),$0", "=r,0,r,~{memory},~{dirflag},~{fpsr},~{flags}"(i32 0, ptr nonnull %7) #8, !srcloc !7
  %indvars.iv.next = add nuw nsw i64 %indvars.iv, 1
  %9 = load i32, ptr %0, align 8
  %10 = sext i32 %9 to i64
  %11 = icmp slt i64 %indvars.iv.next, %10
  br i1 %11, label %5, label %._crit_edge, !llvm.loop !17

._crit_edge:                                      ; preds = %5, %1
  ret void
}